target datalayout = "e-m:e-p270:32:32-p271:32:32-p272:64:64-i64:64-i128:128-f80:128-n8:16:32:64-S128"
target triple = "x86_64-pc-linux-gnu"

%struct.VuDev = type { i32, i32, ptr, ptr, %struct.VuDevInflightInfo, i32, %union.pthread_mutex_t, i32, i64, ptr, i64, i64, i8, i16, ptr, ptr, ptr, ptr, ptr, i32, i8 }
%struct.VuDevInflightInfo = type { i32, ptr, i64 }
%union.pthread_mutex_t = type { %struct.__pthread_mutex_s }
%struct.__pthread_mutex_s = type { i32, i32, i32, i32, i32, i16, i16, %struct.__pthread_internal_list }
%struct.__pthread_internal_list = type { ptr, ptr }
%struct.__va_list_tag = type { i32, i32, ptr, ptr }

; Function Attrs: nounwind uwtable
define internal void @vu_panic(ptr noundef %0, ptr noundef %1, ...) #0 {
  %3 = alloca ptr, align 8
  %4 = alloca ptr, align 8
  %5 = alloca ptr, align 8
  %6 = alloca [1 x %struct.__va_list_tag], align 16
  store ptr %0, ptr %3, align 8
  store ptr %1, ptr %4, align 8
  call void @llvm.lifetime.start.p0(i64 8, ptr %5) #13
  store ptr null, ptr %5, align 8
  call void @llvm.lifetime.start.p0(i64 24, ptr %6) #13
  call void @llvm.memset.p0.i64(ptr align 16 %6, i8 0, i64 24, i1 false), !annotation !4
  %7 = getelementptr inbounds [1 x %struct.__va_list_tag], ptr %6, i64 0, i64 0
  call void @llvm.va_start.p0(ptr %7)
  %8 = load ptr, ptr %4, align 8
  %9 = getelementptr inbounds [1 x %struct.__va_list_tag], ptr %6, i64 0, i64 0
  %10 = call i32 @vasprintf(ptr noundef %5, ptr noundef %8, ptr noundef %9) #13
  %11 = icmp slt i32 %10, 0
  br i1 %11, label %12, label %13

12:                                               ; preds = %2
  store ptr null, ptr %5, align 8
  br label %13

13:                                               ; preds = %12, %2
  %14 = getelementptr inbounds [1 x %struct.__va_list_tag], ptr %6, i64 0, i64 0
  call void @llvm.va_end.p0(ptr %14)
  %15 = load ptr, ptr %3, align 8
  %16 = getelementptr inbounds nuw %struct.VuDev, ptr %15, i32 0, i32 12
  store i8 1, ptr %16, align 8
  %17 = load ptr, ptr %3, align 8
  %18 = getelementptr inbounds nuw %struct.VuDev, ptr %17, i32 0, i32 17
  %19 = load ptr, ptr %18, align 8
  %20 = load ptr, ptr %3, align 8
  %21 = load ptr, ptr %5, align 8
  call void %19(ptr noundef %20, ptr noundef %21)
  %22 = load ptr, ptr %5, align 8
  call void @free(ptr noundef %22) #13
  call void @llvm.lifetime.end.p0(i64 24, ptr %6) #13
  call void @llvm.lifetime.end.p0(i64 8, ptr %5) #13
  ret void
}