; Function Attrs: nounwind uwtable
define internal void @vu_panic(ptr noundef initializes((136, 137)) %0, ptr noundef %1, ...) unnamed_addr #3 {
  %3 = alloca ptr, align 8
  %4 = alloca [1 x %struct.__va_list_tag], align 16
  call void @llvm.lifetime.start.p0(i64 8, ptr nonnull %3) #21
  store ptr null, ptr %3, align 8
  call void @llvm.lifetime.start.p0(i64 24, ptr nonnull %4) #21
  call void @llvm.memset.p0.i64(ptr noundef nonnull align 16 dereferenceable(24) %4, i8 0, i64 24, i1 false), !annotation !4
  call void @llvm.va_start.p0(ptr nonnull %4)
  %5 = call i32 @vasprintf(ptr noundef nonnull %3, ptr noundef %1, ptr noundef nonnull %4) #21
  %6 = icmp slt i32 %5, 0
  br i1 %6, label %7, label %8

7:                                                ; preds = %2
  store ptr null, ptr %3, align 8
  br label %8

8:                                                ; preds = %7, %2
  call void @llvm.va_end.p0(ptr nonnull %4)
  %9 = getelementptr inbounds nuw i8, ptr %0, i64 136
  store i8 1, ptr %9, align 8
  %10 = getelementptr inbounds nuw i8, ptr %0, i64 168
  %11 = load ptr, ptr %10, align 8
  %12 = load ptr, ptr %3, align 8
  call void %11(ptr noundef %0, ptr noundef %12) #21
  %13 = load ptr, ptr %3, align 8
  call void @free(ptr noundef %13) #21
  call void @llvm.lifetime.end.p0(i64 24, ptr nonnull %4) #21
  call void @llvm.lifetime.end.p0(i64 8, ptr nonnull %3) #21
  ret void
}